target datalayout = "e-m:e-p270:32:32-p271:32:32-p272:64:64-i64:64-i128:128-f80:128-n8:16:32:64-S128"
target triple = "x86_64-pc-linux-gnu"

%struct._GtkDarktableGradientSlider = type { %struct._GtkDrawingArea, ptr, i32, i32, i32, [10 x double], [10 x double], [10 x i32], double, double, [3 x double], i32, i32, i32, i32, i32, i32, i32, i32, i32, ptr }
%struct._GtkDrawingArea = type { %struct._GtkWidget, ptr }
%struct._GtkWidget = type { %struct._GObject, ptr }
%struct._GObject = type { %struct._GTypeInstance, i32, ptr }
%struct._GTypeInstance = type { ptr }

@.str.1 = private unnamed_addr constant [16 x i8] c"gslider != NULL\00", align 1
@__func__.dtgtk_gradient_slider_multivalue_set_picker = private unnamed_addr constant [44 x i8] c"dtgtk_gradient_slider_multivalue_set_picker\00", align 1

; Function Attrs: nounwind uwtable
define void @dtgtk_gradient_slider_multivalue_set_picker(ptr noundef %0, double noundef %1) #0 {
  %3 = alloca ptr, align 8
  %4 = alloca double, align 8
  %5 = alloca i32, align 4
  %6 = alloca i32, align 4
  store ptr %0, ptr %3, align 8, !tbaa !24
  store double %1, ptr %4, align 8, !tbaa !45
  br label %7

7:                                                ; preds = %2
  call void @llvm.lifetime.start.p0(i64 4, ptr %5) #11
  %8 = load ptr, ptr %3, align 8, !tbaa !24
  %9 = icmp ne ptr %8, null
  br i1 %9, label %10, label %11

10:                                               ; preds = %7
  store i32 1, ptr %5, align 4, !tbaa !13
  br label %12

11:                                               ; preds = %7
  store i32 0, ptr %5, align 4, !tbaa !13
  br label %12

12:                                               ; preds = %11, %10
  %13 = load i32, ptr %5, align 4, !tbaa !13
  store i32 %13, ptr %6, align 4, !tbaa !13
  call void @llvm.lifetime.end.p0(i64 4, ptr %5) #11
  %14 = load i32, ptr %6, align 4, !tbaa !13
  %15 = sext i32 %14 to i64
  %16 = call i64 @llvm.expect.i64(i64 %15, i64 1)
  %17 = icmp ne i64 %16, 0
  br i1 %17, label %18, label %19

18:                                               ; preds = %12
  br label %20

19:                                               ; preds = %12
  call void @g_return_if_fail_warning(ptr noundef null, ptr noundef @__func__.dtgtk_gradient_slider_multivalue_set_picker, ptr noundef @.str.1)
  br label %42

20:                                               ; preds = %18
  br label %21

21:                                               ; preds = %20
  %22 = load ptr, ptr %3, align 8, !tbaa !24
  %23 = getelementptr inbounds nuw %struct._GtkDarktableGradientSlider, ptr %22, i32 0, i32 20
  %24 = load ptr, ptr %23, align 8, !tbaa !43
  %25 = load ptr, ptr %3, align 8, !tbaa !24
  %26 = load double, ptr %4, align 8, !tbaa !45
  %27 = fptrunc reassoc nsz arcp contract afn double %26 to float
  %28 = call reassoc nsz arcp contract afn float %24(ptr noundef %25, float noundef %27, i32 noundef 1)
  %29 = fpext reassoc nsz arcp contract afn float %28 to double
  %30 = load ptr, ptr %3, align 8, !tbaa !24
  %31 = getelementptr inbounds nuw %struct._GtkDarktableGradientSlider, ptr %30, i32 0, i32 10
  %32 = getelementptr inbounds [3 x double], ptr %31, i64 0, i64 2
  store double %29, ptr %32, align 8, !tbaa !45
  %33 = load ptr, ptr %3, align 8, !tbaa !24
  %34 = getelementptr inbounds nuw %struct._GtkDarktableGradientSlider, ptr %33, i32 0, i32 10
  %35 = getelementptr inbounds [3 x double], ptr %34, i64 0, i64 1
  store double %29, ptr %35, align 8, !tbaa !45
  %36 = load ptr, ptr %3, align 8, !tbaa !24
  %37 = getelementptr inbounds nuw %struct._GtkDarktableGradientSlider, ptr %36, i32 0, i32 10
  %38 = getelementptr inbounds [3 x double], ptr %37, i64 0, i64 0
  store double %29, ptr %38, align 8, !tbaa !45
  %39 = load ptr, ptr %3, align 8, !tbaa !24
  %40 = call i64 @gtk_widget_get_type() #12
  %41 = call ptr @g_type_check_instance_cast(ptr noundef %39, i64 noundef %40)
  call void @gtk_widget_queue_draw(ptr noundef %41)
  br label %42

42:                                               ; preds = %21, %19
  ret void
}