; Function Attrs: nounwind uwtable
define void @dtgtk_gradient_slider_multivalue_set_picker(ptr noundef %0, double noundef %1) local_unnamed_addr #0 {
  %.not = icmp eq ptr %0, null
  br i1 %.not, label %3, label %4, !prof !45

3:                                                ; preds = %2
  tail call void @g_return_if_fail_warning(ptr noundef null, ptr noundef nonnull @__func__.dtgtk_gradient_slider_multivalue_set_picker, ptr noundef nonnull @.str.1) #14
  br label %15

4:                                                ; preds = %2
  %5 = getelementptr inbounds nuw i8, ptr %0, i64 344
  %6 = load ptr, ptr %5, align 8, !tbaa !34
  %7 = fptrunc reassoc nsz arcp contract afn double %1 to float
  %8 = tail call reassoc nsz arcp contract afn float %6(ptr noundef nonnull %0, float noundef %7, i32 noundef 1) #14
  %9 = fpext reassoc nsz arcp contract afn float %8 to double
  %10 = getelementptr inbounds nuw i8, ptr %0, i64 280
  %11 = getelementptr inbounds nuw i8, ptr %0, i64 296
  store double %9, ptr %11, align 8, !tbaa !37
  %12 = getelementptr inbounds nuw i8, ptr %0, i64 288
  store double %9, ptr %12, align 8, !tbaa !37
  store double %9, ptr %10, align 8, !tbaa !37
  %13 = tail call i64 @gtk_widget_get_type() #15
  %14 = tail call ptr @g_type_check_instance_cast(ptr noundef nonnull %0, i64 noundef %13) #14
  tail call void @gtk_widget_queue_draw(ptr noundef %14) #14
  br label %15

15:                                               ; preds = %4, %3
  ret void
}